Disassembly of section .text:

0 <_csl__crt0____src_ins_assembly_test_s>:
       0:    00 10 05 13    addi x10 , x0 , 1
       4:    00 a0 01 13    addi x2 , x0 , 10
       8:    00 a0 80 93    addi x1 , x1 , 10
       c:    1a 20 9c 63    bne x1 , x2 , sun_0 /* address 464(0x1d0) */
      10:    00 15 05 13    addi x10 , x10 , 1
      14:    01 40 01 93    addi x3 , x0 , 20
      18:    00 20 80 b3    add x1 , x1 , x2
      1c:    1a 30 94 63    bne x1 , x3 , sirius_1 /* address 480(0x1e0) */
      20:    00 15 05 13    addi x10 , x10 , 1
      24:    00 01 f1 b3    and x3 , x3 , x0
      28:    18 01 9e 63    bne x3 , x0 , canopus_2 /* address 492(0x1ec) */
      2c:    00 15 05 13    addi x10 , x10 , 1
      30:    00 a0 01 93    addi x3 , x0 , 10
      34:    00 01 61 33    or x2 , x2 , x0
      38:    18 31 16 63    bne x2 , x3 , alpha_centauri_3 /* address 508(0x1fc) */
      3c:    00 15 05 13    addi x10 , x10 , 1
      40:    00 31 41 33    xor x2 , x2 , x3
      44:    18 01 10 63    bne x2 , x0 , arcturus_4 /* address 520(0x208) */
      48:    00 15 05 13    addi x10 , x10 , 1
      4c:    00 a0 01 13    addi x2 , x0 , 10
      50:    40 31 01 33    sub x2 , x2 , x3
      54:    16 01 18 63    bne x2 , x0 , vega_5 /* address 536(0x218) */
      58:    00 15 05 13    addi x10 , x10 , 1
      5c:    0a a0 01 13    addi x2 , x0 , 170
      60:    00 01 02 93    addi x5 , x2 , 0
      64:    00 20 01 93    addi x3 , x0 , 2
      68:    2a 80 02 13    addi x4 , x0 , 680
      6c:    00 31 11 33    sll x2 , x2 , x3
      70:    14 41 1a 63    bne x2 , x4 , capella_6 /* address 564(0x234) */
      74:    00 15 05 13    addi x10 , x10 , 1
      78:    00 31 51 33    srl x2 , x2 , x3
      7c:    14 51 14 63    bne x2 , x5 , rigel_7 /* address 576(0x240) */
      80:    00 15 05 13    addi x10 , x10 , 1
      84:    00 10 01 13    addi x2 , x0 , 1
      88:    00 51 a3 33    slt x6 , x3 , x5
      8c:    12 23 1c 63    bne x6 , x2 , procyon_8 /* address 592(0x250) */
      90:    00 52 23 33    slt x6 , x4 , x5
      94:    12 03 18 63    bne x6 , x0 , achernar_9 /* address 600(0x258) */
      98:    ff f0 01 93    addi x3 , x0 , -1
      9c:    00 01 a3 33    slt x6 , x3 , x0
      a0:    12 23 12 63    bne x6 , x2 , betelgeuse_10 /* address 612(0x264) */
      a4:    00 15 05 13    addi x10 , x10 , 1
      a8:    00 01 b3 33    sltu x6 , x3 , x0
      ac:    10 03 1c 63    bne x6 , x0 , orion_11 /* address 624(0x270) */
      b0:    00 15 05 13    addi x10 , x10 , 1
      b4:    00 02 72 13    andi x4 , x4 , 0
      b8:    10 02 16 63    bne x4 , x0 , pollux_12 /* address 636(0x27c) */
      bc:    00 15 05 13    addi x10 , x10 , 1
      c0:    05 50 01 93    addi x3 , x0 , 85
      c4:    05 00 01 13    addi x2 , x0 , 80
      c8:    00 01 02 13    addi x4 , x2 , 0
      cc:    00 51 61 13    ori x2 , x2 , 5
      d0:    0e 31 1a 63    bne x2 , x3 , antarez_13 /* address 660(0x294) */
      d4:    00 15 05 13    addi x10 , x10 , 1
      d8:    00 51 c1 93    xori x3 , x3 , 5
      dc:    0e 41 94 63    bne x3 , x4 , my_cephei_14 /* address 672(0x2a0) */
      e0:    00 15 05 13    addi x10 , x10 , 1
      e4:    00 10 02 13    addi x4 , x0 , 1
      e8:    06 01 a3 93    slti x7 , x3 , 96
      ec:    0c 43 9c 63    bne x7 , x4 , w_cephei_15 /* address 688(0x2b0) */
      f0:    04 51 a3 93    slti x7 , x3 , 69
      f4:    0c 03 98 63    bne x7 , x0 , sun_16 /* address 696(0x2b8) */
      f8:    ff f1 a3 93    slti x7 , x3 , -1
      fc:    0c 03 94 63    bne x7 , x0 , sirius_17 /* address 704(0x2c0) */
     100:    00 15 05 13    addi x10 , x10 , 1
     104:    ff f1 b3 93    sltiu x7 , x3 , -1
     108:    0a 43 9e 63    bne x7 , x4 , canopus_18 /* address 716(0x2cc) */
     10c:    00 15 05 13    addi x10 , x10 , 1
     110:    00 50 01 93    addi x3 , x0 , 5
     114:    00 01 82 93    addi x5 , x3 , 0
     118:    00 32 84 63    beq x5 , x3 , alpha_centauri_19 /* address 568(0x238) */
     11c:    0a 32 94 63    bne x5 , x3 , arcturus_20 /* address 736(0x2e0) */
120 <BEQ1____src_ins_assembly_test_s>:
     120:    00 15 05 13    addi x10 , x10 , 1
     124:    00 42 94 63    bne x5 , x4 , procyon_8 /* address 592(0x250) */
     128:    08 42 8e 63    beq x5 , x4 , vega_21 /* address 748(0x2ec) */
12c <BNE1____src_ins_assembly_test_s>:
     12c:    00 15 05 13    addi x10 , x10 , 1
     130:    00 32 46 63    blt x4 , x3 , capella_22 /* address 620(0x26c) */
     134:    08 41 c8 63    blt x3 , x4 , rigel_23 /* address 760(0x2f8) */
     138:    08 32 06 63    beq x4 , x3 , procyon_24 /* address 764(0x2fc) */
13c <BLT1____src_ins_assembly_test_s>:
     13c:    00 15 05 13    addi x10 , x10 , 1
     140:    00 32 46 63    blt x4 , x3 , achernar_25 /* address 652(0x28c) */
     144:    08 41 c0 63    blt x3 , x4 , betelgeuse_26 /* address 776(0x308) */
     148:    06 41 8e 63    beq x3 , x4 , orion_27 /* address 780(0x30c) */
14c <BGT1____src_ins_assembly_test_s>:
     14c:    00 15 05 13    addi x10 , x10 , 1
     150:    ff f0 00 93    addi x1 , x0 , -1
     154:    00 12 e6 63    bltu x5 , x1 , pollux_28 /* address 692(0x2b4) */
     158:    06 50 c6 63    blt x1 , x5 , antarez_29 /* address 796(0x31c) */
     15c:    06 12 84 63    beq x5 , x1 , my_cephei_30 /* address 800(0x320) */
160 <BLTU1____src_ins_assembly_test_s>:
     160:    00 15 05 13    addi x10 , x10 , 1
     164:    00 12 d4 63    bge x5 , x1 , w_cephei_31 /* address 720(0x2d0) */
     168:    04 12 ce 63    blt x5 , x1 , sun_32 /* address 812(0x32c) */
16c <BGE1____src_ins_assembly_test_s>:
     16c:    00 15 05 13    addi x10 , x10 , 1
     170:    00 50 f4 63    bgeu x1 , x5 , sirius_33 /* address 744(0x2e8) */
     174:    04 50 c8 63    blt x1 , x5 , canopus_34 /* address 824(0x338) */
178 <BGEU1____src_ins_assembly_test_s>:
     178:    00 15 05 13    addi x10 , x10 , 1
     17c:    0a a0 01 93    addi x3 , x0 , 170
     180:    00 01 82 93    addi x5 , x3 , 0
     184:    2a 80 02 13    addi x4 , x0 , 680
     188:    00 21 91 93    slli x3 , x3 , 2
     18c:    02 41 9c 63    bne x3 , x4 , alpha_centauri_35 /* address 848(0x350) */
     190:    00 15 05 13    addi x10 , x10 , 1
     194:    00 21 d1 93    srli x3 , x3 , 2
     198:    02 51 96 63    bne x3 , x5 , arcturus_36 /* address 860(0x35c) */
     19c:    00 15 05 13    addi x10 , x10 , 1
     1a0:    04 40 01 ef    jal x3 , vega_37 /* address 900(0x384) */
     1a4:    02 00 00 6f    jal x0 , capella_38 /* address 872(0x368) */
     1a8:    00 00 00 13    addi x0 , x0 , 0
     1ac:    00 00 00 13    addi x0 , x0 , 0
     1b0:    00 00 00 13    addi x0 , x0 , 0
     1b4:    00 00 00 3f    halt
     1b8:    00 00 00 13    addi x0 , x0 , 0
     1bc:    00 00 00 13    addi x0 , x0 , 0
     1c0:    00 00 00 13    addi x0 , x0 , 0
1c4 <FAIL____src_ins_assembly_test_s>:
     1c4:    00 10 0a 13    addi x20 , x0 , 1
     1c8:    00 00 00 13    addi x0 , x0 , 0
     1cc:    00 00 00 13    addi x0 , x0 , 0
1d0 <sun_0>:
     1d0:    00 00 00 13    addi x0 , x0 , 0
     1d4:    00 00 00 3f    halt
     1d8:    00 00 00 13    addi x0 , x0 , 0
     1dc:    00 00 00 13    addi x0 , x0 , 0
1e0 <sirius_1>:
     1e0:    00 00 00 13    addi x0 , x0 , 0
1e4 <SUB_ROUTINE____src_ins_assembly_test_s>:
     1e4:    00 15 05 13    addi x10 , x10 , 1
     1e8:    35 00 01 ef    jal x3 , 0x720
1ec <canopus_2>:
     1ec:    00 15 05 13    addi x10 , x10 , 1
     1f0:    64 a0 20 23    sw x10 , 1600 ( x0 )
     1f4:    64 00 25 83    lw x11 , 1600 ( x0 )
     1f8:    fc a5 96 e3    bne x11 , x10 , rigel_39 /* address 956(0x3bc) */
1fc <alpha_centauri_3>:
     1fc:    00 15 05 13    addi x10 , x10 , 1
     200:    0f f0 06 93    addi x13 , x0 , 255
     204:    64 d0 00 23    sb x13 , 1600 ( x0 )
208 <arcturus_4>:
     208:    64 00 47 03    lbu x14 , 1600 ( x0 )
     20c:    fa d7 1c e3    bne x14 , x13 , procyon_40 /* address 976(0x3d0) */
     210:    00 15 05 13    addi x10 , x10 , 1
     214:    3f f0 06 93    addi x13 , x0 , 1023
218 <vega_5>:
     218:    64 d0 10 23    sh x13 , 1600 ( x0 )
     21c:    64 00 57 03    lhu x14 , 1600 ( x0 )
     220:    fa d7 12 e3    bne x14 , x13 , achernar_41 /* address 996(0x3e4) */
     224:    00 15 05 13    addi x10 , x10 , 1
     228:    0f a0 06 93    addi x13 , x0 , 250
     22c:    64 d0 00 23    sb x13 , 1600 ( x0 )
     230:    64 00 07 83    lb x15 , 1600 ( x0 )
234 <capella_6>:
     234:    0f f7 f7 93    andi x15 , x15 , 255
238 <alpha_centauri_19>:
     238:    f8 d7 96 e3    bne x15 , x13 , SUB_ROUTINE8____src_ins_assembly_test_s /* address 1020(0x3fc) */
     23c:    00 15 05 13    addi x10 , x10 , 1
240 <rigel_7>:
     240:    00 00 f7 37    lui x14 , 15
     244:    73 a7 07 13    addi x14 , x14 , 1850
     248:    64 e0 10 23    sh x14 , 1600 ( x0 )
     24c:    64 00 17 83    lh x15 , 1600 ( x0 )
250 <procyon_8>:
     250:    00 00 f8 37    lui x16 , 15
     254:    7f f8 08 13    addi x16 , x16 , 2047
258 <achernar_9>:
     258:    7f f8 08 13    addi x16 , x16 , 2047
     25c:    00 18 08 13    addi x16 , x16 , 1
     260:    01 07 f7 b3    and x15 , x15 , x16
264 <betelgeuse_10>:
     264:    f6 e7 90 e3    bne x15 , x14 , betelgeuse_42 /* address 1064(0x428) */
     268:    00 15 05 13    addi x10 , x10 , 1
26c <capella_22>:
     26c:    0a b0 06 93    addi x13 , x0 , 171
270 <orion_11>:
     270:    00 09 f9 b3    and x19 , x19 , x0
     274:    0a b9 89 93    addi x19 , x19 , 171
     278:    f4 d9 96 e3    bne x19 , x13 , orion_43 /* address 1084(0x43c) */
27c <pollux_12>:
     27c:    00 15 05 13    addi x10 , x10 , 1
     280:    00 06 87 13    addi x14 , x13 , 0
     284:    f4 e6 90 e3    bne x13 , x14 , pollux_44 /* address 1096(0x448) */
     288:    00 15 05 13    addi x10 , x10 , 1
28c <achernar_25>:
     28c:    aa aa a6 b7    lui x13 , 699050
     290:    0a a6 86 93    addi x13 , x13 , 170
294 <antarez_13>:
     294:    55 55 57 37    lui x14 , 349525
     298:    75 57 07 13    addi x14 , x14 , 1877
     29c:    7f f7 07 13    addi x14 , x14 , 2047
2a0 <my_cephei_14>:
     2a0:    00 17 07 13    addi x14 , x14 , 1
     2a4:    ff f7 47 13    xori x14 , x14 , -1
     2a8:    f0 e6 9e e3    bne x13 , x14 , antarez_45 /* address 1132(0x46c) */
     2ac:    00 15 05 13    addi x10 , x10 , 1
2b0 <w_cephei_15>:
     2b0:    00 16 86 93    addi x13 , x13 , 1
2b4 <pollux_28>:
     2b4:    ff f7 47 13    xori x14 , x14 , -1
2b8 <sun_16>:
     2b8:    40 e0 07 33    sub x14 , x0 , x14
     2bc:    f0 e6 94 e3    bne x13 , x14 , my_cephei_46 /* address 1152(0x480) */
2c0 <sirius_17>:
     2c0:    00 15 05 13    addi x10 , x10 , 1
     2c4:    00 10 00 93    addi x1 , x0 , 1
     2c8:    00 10 32 93    sltiu x5 , x0 , 1
2cc <canopus_18>:
     2cc:    ee 12 9c e3    bne x5 , x1 , w_cephei_47 /* address 1168(0x490) */
2d0 <w_cephei_31>:
     2d0:    00 15 05 13    addi x10 , x10 , 1
     2d4:    00 50 33 33    sltu x6 , x0 , x5
     2d8:    ee 13 16 e3    bne x6 , x1 , SUB_ROUTINE12____src_ins_assembly_test_s /* address 1180(0x49c) */
     2dc:    00 00 33 33    sltu x6 , x0 , x0
2e0 <arcturus_20>:
     2e0:    ee 03 12 e3    bne x6 , x0 , sun_48 /* address 1188(0x4a4) */
     2e4:    00 15 05 13    addi x10 , x10 , 1
2e8 <sirius_33>:
     2e8:    00 00 81 13    addi x2 , x1 , 0
2ec <vega_21>:
     2ec:    40 20 01 33    sub x2 , x0 , x2
     2f0:    00 01 23 33    slt x6 , x2 , x0
     2f4:    ec 13 18 e3    bne x6 , x1 , sirius_49 /* address 1208(0x4b8) */
2f8 <rigel_23>:
     2f8:    00 00 a3 33    slt x6 , x1 , x0
2fc <procyon_24>:
     2fc:    ec 03 14 e3    bne x6 , x0 , canopus_50 /* address 1216(0x4c0) */
     300:    00 15 05 13    addi x10 , x10 , 1
     304:    00 10 23 33    slt x6 , x0 , x1
308 <betelgeuse_26>:
     308:    ea 13 1e e3    bne x6 , x1 , alpha_centauri_51 /* address 1228(0x4cc) */
30c <orion_27>:
     30c:    00 20 23 33    slt x6 , x0 , x2
     310:    ea 03 1a e3    bne x6 , x0 , arcturus_52 /* address 1236(0x4d4) */
     314:    00 15 05 13    addi x10 , x10 , 1
     318:    02 00 02 63    beq x0 , x0 , 0x654
31c <antarez_29>:
     31c:    ea 9f f0 6f    jal x0 , vega_53 /* address 1248(0x4e0) */
320 <my_cephei_30>:
     320:    00 00 00 13    addi x0 , x0 , 0
     324:    00 00 00 13    addi x0 , x0 , 0
     328:    00 00 00 13    addi x0 , x0 , 0
32c <sun_32>:
     32c:    00 00 00 3f    halt
     330:    00 00 00 13    addi x0 , x0 , 0
     334:    00 00 00 13    addi x0 , x0 , 0
338 <canopus_34>:
     338:    00 00 00 13    addi x0 , x0 , 0
33c <SUB_ROUTINE3____src_ins_assembly_test_s>:
     33c:    00 15 05 13    addi x10 , x10 , 1
     340:    02 00 92 63    bne x1 , x0 , 0x6a4
     344:    e8 1f f0 6f    jal x0 , capella_54 /* address 1288(0x508) */
     348:    00 00 00 13    addi x0 , x0 , 0
     34c:    00 00 00 13    addi x0 , x0 , 0
350 <alpha_centauri_35>:
     350:    00 00 00 13    addi x0 , x0 , 0
     354:    00 00 00 3f    halt
     358:    00 00 00 13    addi x0 , x0 , 0
35c <arcturus_36>:
     35c:    00 00 00 13    addi x0 , x0 , 0
     360:    00 00 00 13    addi x0 , x0 , 0
364 <SUB_ROUTINE4____src_ins_assembly_test_s>:
     364:    00 15 05 13    addi x10 , x10 , 1
368 <capella_38>:
     368:    02 20 52 63    bge x0 , x2 , 0x6f4
     36c:    e5 9f f0 6f    jal x0 , rigel_55 /* address 1328(0x530) */
     370:    00 00 00 13    addi x0 , x0 , 0
     374:    00 00 00 13    addi x0 , x0 , 0
     378:    00 00 00 13    addi x0 , x0 , 0
     37c:    00 00 00 3f    halt
     380:    00 00 00 13    addi x0 , x0 , 0
384 <vega_37>:
     384:    00 00 00 13    addi x0 , x0 , 0
     388:    00 00 00 13    addi x0 , x0 , 0
38c <SUB_ROUTINE5____src_ins_assembly_test_s>:
     38c:    02 00 52 63    bge x0 , x0 , 0x73c
     390:    e3 5f f0 6f    jal x0 , procyon_56 /* address 1364(0x554) */
     394:    00 00 00 13    addi x0 , x0 , 0
     398:    00 00 00 13    addi x0 , x0 , 0
     39c:    00 00 00 13    addi x0 , x0 , 0
     3a0:    00 00 00 3f    halt
     3a4:    00 00 00 13    addi x0 , x0 , 0
     3a8:    00 00 00 13    addi x0 , x0 , 0
     3ac:    00 00 00 13    addi x0 , x0 , 0
3b0 <SUB_ROUTINE6____src_ins_assembly_test_s>:
     3b0:    00 15 05 13    addi x10 , x10 , 1
     3b4:    02 00 d2 63    bge x1 , x0 , 0x78c
     3b8:    e0 df f0 6f    jal x0 , 0x57c
3bc <rigel_39>:
     3bc:    00 00 00 13    addi x0 , x0 , 0
     3c0:    00 00 00 13    addi x0 , x0 , 0
     3c4:    00 00 00 13    addi x0 , x0 , 0
     3c8:    00 00 00 3f    halt
     3cc:    00 00 00 13    addi x0 , x0 , 0
3d0 <procyon_40>:
     3d0:    00 00 00 13    addi x0 , x0 , 0
     3d4:    00 00 00 13    addi x0 , x0 , 0
3d8 <SUB_ROUTINE7____src_ins_assembly_test_s>:
     3d8:    02 00 52 63    bge x0 , x0 , 0x7d4
     3dc:    de 9f f0 6f    jal x0 , 0x5a0
     3e0:    00 00 00 13    addi x0 , x0 , 0
3e4 <achernar_41>:
     3e4:    00 00 00 13    addi x0 , x0 , 0
     3e8:    00 00 00 13    addi x0 , x0 , 0
     3ec:    00 00 00 3f    halt
     3f0:    00 00 00 13    addi x0 , x0 , 0
     3f4:    00 00 00 13    addi x0 , x0 , 0
     3f8:    00 00 00 13    addi x0 , x0 , 0
3fc <SUB_ROUTINE8____src_ins_assembly_test_s>:
     3fc:    00 15 05 13    addi x10 , x10 , 1
     400:    02 01 42 63    blt x2 , x0 , 0x824
     404:    dc 1f f0 6f    jal x0 , 0x5c8
     408:    00 00 00 13    addi x0 , x0 , 0
     40c:    00 00 00 13    addi x0 , x0 , 0
     410:    00 00 00 13    addi x0 , x0 , 0
     414:    00 00 00 3f    halt
     418:    00 00 00 13    addi x0 , x0 , 0
     41c:    00 00 00 13    addi x0 , x0 , 0
     420:    00 00 00 13    addi x0 , x0 , 0
424 <SUB_ROUTINE9____src_ins_assembly_test_s>:
     424:    00 15 05 13    addi x10 , x10 , 1
428 <betelgeuse_42>:
     428:    02 10 42 63    blt x0 , x1 , 0x874
     42c:    d9 9f f0 6f    jal x0 , 0x5f0
     430:    00 00 00 13    addi x0 , x0 , 0
     434:    00 00 00 13    addi x0 , x0 , 0
     438:    00 00 00 13    addi x0 , x0 , 0
43c <orion_43>:
     43c:    00 00 00 3f    halt
     440:    00 00 00 13    addi x0 , x0 , 0
     444:    00 00 00 13    addi x0 , x0 , 0
448 <pollux_44>:
     448:    00 00 00 13    addi x0 , x0 , 0
44c <SUB_ROUTINE10____src_ins_assembly_test_s>:
     44c:    00 15 05 13    addi x10 , x10 , 1
     450:    02 20 d2 63    bge x1 , x2 , 0x8c4
     454:    d7 1f f0 6f    jal x0 , 0x618
     458:    00 00 00 13    addi x0 , x0 , 0
     45c:    00 00 00 13    addi x0 , x0 , 0
     460:    00 00 00 13    addi x0 , x0 , 0
     464:    00 00 00 3f    halt
     468:    00 00 00 13    addi x0 , x0 , 0
46c <antarez_45>:
     46c:    00 00 00 13    addi x0 , x0 , 0
     470:    00 00 00 13    addi x0 , x0 , 0
474 <SUB_ROUTINE11____src_ins_assembly_test_s>:
     474:    00 15 05 13    addi x10 , x10 , 1
     478:    02 20 e2 63    bltu x1 , x2 , 0x914
     47c:    d4 9f f0 6f    jal x0 , 0x640
480 <my_cephei_46>:
     480:    00 00 00 13    addi x0 , x0 , 0
     484:    00 00 00 13    addi x0 , x0 , 0
     488:    00 00 00 13    addi x0 , x0 , 0
     48c:    00 00 00 3f    halt
490 <w_cephei_47>:
     490:    00 00 00 13    addi x0 , x0 , 0
     494:    00 00 00 13    addi x0 , x0 , 0
     498:    00 00 00 13    addi x0 , x0 , 0
49c <SUB_ROUTINE12____src_ins_assembly_test_s>:
     49c:    00 15 05 13    addi x10 , x10 , 1
     4a0:    02 11 72 63    bgeu x2 , x1 , 0x964
4a4 <sun_48>:
     4a4:    d2 1f f0 6f    jal x0 , 0x668
     4a8:    00 00 00 13    addi x0 , x0 , 0
     4ac:    00 00 00 13    addi x0 , x0 , 0
     4b0:    00 00 00 13    addi x0 , x0 , 0
     4b4:    00 00 00 3f    halt
4b8 <sirius_49>:
     4b8:    00 00 00 13    addi x0 , x0 , 0
     4bc:    00 00 00 13    addi x0 , x0 , 0
4c0 <canopus_50>:
     4c0:    00 00 00 13    addi x0 , x0 , 0
4c4 <SUB_ROUTINE13____src_ins_assembly_test_s>:
     4c4:    00 15 05 13    addi x10 , x10 , 1
     4c8:    02 40 00 ef    jal x1 , 0x9b4
4cc <alpha_centauri_51>:
     4cc:    cf 9f f0 6f    jal x0 , 0x690
     4d0:    00 00 00 13    addi x0 , x0 , 0
4d4 <arcturus_52>:
     4d4:    00 00 00 13    addi x0 , x0 , 0
     4d8:    00 00 00 13    addi x0 , x0 , 0
     4dc:    00 00 00 3f    halt
4e0 <vega_53>:
     4e0:    00 00 00 13    addi x0 , x0 , 0
     4e4:    00 00 00 13    addi x0 , x0 , 0
     4e8:    00 00 00 13    addi x0 , x0 , 0
4ec <SUB_ROUTINE14____src_ins_assembly_test_s>:
     4ec:    00 15 05 13    addi x10 , x10 , 1
     4f0:    02 40 00 ef    jal x1 , 0xa04
     4f4:    06 80 00 6f    jal x0 , 0xa50
     4f8:    00 00 00 13    addi x0 , x0 , 0
     4fc:    00 00 00 13    addi x0 , x0 , 0
     500:    00 00 00 13    addi x0 , x0 , 0
     504:    00 00 00 3f    halt
508 <capella_54>:
     508:    00 00 00 13    addi x0 , x0 , 0
     50c:    00 00 00 13    addi x0 , x0 , 0
     510:    00 00 00 13    addi x0 , x0 , 0
514 <SUB_ROUTINE15____src_ins_assembly_test_s>:
     514:    00 00 80 67    jalr x0 , SUB_ROUTINE15____src_ins_assembly_test_s /* address 1300(0x514) */ ( x1 )
     518:    ca df f0 6f    jal x0 , 0x6dc
     51c:    00 00 00 13    addi x0 , x0 , 0
     520:    00 00 00 13    addi x0 , x0 , 0
     524:    00 00 00 13    addi x0 , x0 , 0
     528:    00 00 00 3f    halt
     52c:    00 00 00 13    addi x0 , x0 , 0
530 <rigel_55>:
     530:    00 00 00 13    addi x0 , x0 , 0
     534:    00 00 00 13    addi x0 , x0 , 0
538 <SUB_ROUTINE2____src_ins_assembly_test_s>:
     538:    00 01 80 67    jalr x0 , SUB_ROUTINE2____src_ins_assembly_test_s /* address 1336(0x538) */ ( x3 )
     53c:    c8 9f f0 6f    jal x0 , 0x700
     540:    00 00 00 13    addi x0 , x0 , 0
     544:    00 00 00 13    addi x0 , x0 , 0
     548:    00 00 00 13    addi x0 , x0 , 0
     54c:    00 00 00 3f    halt
     550:    00 00 00 13    addi x0 , x0 , 0
554 <procyon_56>:
     554:    00 00 00 13    addi x0 , x0 , 0
     558:    00 00 00 13    addi x0 , x0 , 0
55c <PASS____src_ins_assembly_test_s>:
     55c:    00 1c 8c 93    addi x25 , x25 , 1
     560:    00 00 00 13    addi x0 , x0 , 0
     564:    00 00 00 13    addi x0 , x0 , 0
     568:    00 00 00 13    addi x0 , x0 , 0
     56c:    00 00 00 3f    halt
     570:    00 00 00 13    addi x0 , x0 , 0
     574:    00 00 00 13    addi x0 , x0 , 0
     578:    00 00 00 13    addi x0 , x0 , 0
